; Function Attrs: nounwind uwtable
define noalias noundef ptr @Acb_NtkFindDivsCis(ptr noundef readonly captures(none) %0, ptr noundef readonly captures(none) %1) local_unnamed_addr #0 {
  %3 = getelementptr i8, ptr %1, i64 4
  %.val11 = load i32, ptr %3, align 4
  %4 = tail call noalias dereferenceable_or_null(16) ptr @malloc(i64 noundef 16) #29
  %5 = add i32 %.val11, -1
  %or.cond.i = icmp ult i32 %5, 15
  %spec.store.select.i = select i1 %or.cond.i, i32 16, i32 %.val11
  %6 = getelementptr inbounds nuw i8, ptr %4, i64 4
  store i32 0, ptr %6, align 4
  store i32 %spec.store.select.i, ptr %4, align 8
  %.not.i = icmp eq i32 %spec.store.select.i, 0
  br i1 %.not.i, label %Vec_IntAlloc.exit, label %7

7:                                                ; preds = %2
  %8 = sext i32 %spec.store.select.i to i64
  %9 = shl nsw i64 %8, 2
  %10 = tail call noalias ptr @malloc(i64 noundef %9) #29
  br label %Vec_IntAlloc.exit

Vec_IntAlloc.exit:                                ; preds = %2, %7
  %11 = phi ptr [ %10, %7 ], [ null, %2 ]
  %12 = getelementptr inbounds nuw i8, ptr %4, i64 8
  store ptr %11, ptr %12, align 8
  %13 = icmp sgt i32 %.val11, 0
  br i1 %13, label %.lr.ph, label %.critedge

.lr.ph:                                           ; preds = %Vec_IntAlloc.exit
  %14 = getelementptr i8, ptr %1, i64 8
  %15 = getelementptr i8, ptr %0, i64 32
  br label %16

16:                                               ; preds = %.lr.ph, %Vec_IntPush.exit
  %indvars.iv = phi i64 [ 0, %.lr.ph ], [ %indvars.iv.next, %Vec_IntPush.exit ]
  %.val12 = load ptr, ptr %14, align 8
  %17 = getelementptr inbounds nuw i32, ptr %.val12, i64 %indvars.iv
  %18 = load i32, ptr %17, align 4
  %.val13 = load ptr, ptr %15, align 8
  %19 = sext i32 %18 to i64
  %20 = getelementptr inbounds i32, ptr %.val13, i64 %19
  %21 = load i32, ptr %20, align 4
  %22 = load i32, ptr %6, align 4
  %23 = load i32, ptr %4, align 8
  %24 = icmp eq i32 %22, %23
  br i1 %24, label %25, label %.Vec_IntGrow.exit10_crit_edge.i

.Vec_IntGrow.exit10_crit_edge.i:                  ; preds = %16
  %.pre.i = load ptr, ptr %12, align 8
  br label %Vec_IntPush.exit

25:                                               ; preds = %16
  %26 = icmp slt i32 %22, 16
  br i1 %26, label %27, label %34

27:                                               ; preds = %25
  %28 = load ptr, ptr %12, align 8
  %.not9.i.i = icmp eq ptr %28, null
  br i1 %.not9.i.i, label %31, label %29

29:                                               ; preds = %27
  %30 = tail call dereferenceable_or_null(64) ptr @realloc(ptr noundef nonnull %28, i64 noundef 64) #30
  br label %Vec_IntGrow.exit.i

31:                                               ; preds = %27
  %32 = tail call noalias dereferenceable_or_null(64) ptr @malloc(i64 noundef 64) #29
  br label %Vec_IntGrow.exit.i

Vec_IntGrow.exit.i:                               ; preds = %31, %29
  %33 = phi ptr [ %30, %29 ], [ %32, %31 ]
  store ptr %33, ptr %12, align 8
  store i32 16, ptr %4, align 8
  br label %Vec_IntPush.exit

34:                                               ; preds = %25
  %35 = shl nuw nsw i32 %22, 1
  %36 = load ptr, ptr %12, align 8
  %.not9.i9.i = icmp eq ptr %36, null
  %37 = zext nneg i32 %35 to i64
  %38 = shl nuw nsw i64 %37, 2
  br i1 %.not9.i9.i, label %41, label %39

39:                                               ; preds = %34
  %40 = tail call ptr @realloc(ptr noundef nonnull %36, i64 noundef %38) #30
  br label %43

41:                                               ; preds = %34
  %42 = tail call noalias ptr @malloc(i64 noundef %38) #29
  br label %43

43:                                               ; preds = %41, %39
  %44 = phi ptr [ %40, %39 ], [ %42, %41 ]
  store ptr %44, ptr %12, align 8
  store i32 %35, ptr %4, align 8
  br label %Vec_IntPush.exit

Vec_IntPush.exit:                                 ; preds = %.Vec_IntGrow.exit10_crit_edge.i, %Vec_IntGrow.exit.i, %43
  %45 = phi ptr [ %.pre.i, %.Vec_IntGrow.exit10_crit_edge.i ], [ %44, %43 ], [ %33, %Vec_IntGrow.exit.i ]
  %46 = add nsw i32 %22, 1
  store i32 %46, ptr %6, align 4
  %47 = sext i32 %22 to i64
  %48 = getelementptr inbounds i32, ptr %45, i64 %47
  store i32 %21, ptr %48, align 4
  %indvars.iv.next = add nuw nsw i64 %indvars.iv, 1
  %.val10 = load i32, ptr %3, align 4
  %49 = sext i32 %.val10 to i64
  %50 = icmp slt i64 %indvars.iv.next, %49
  br i1 %50, label %16, label %.critedge, !llvm.loop !53

.critedge:                                        ; preds = %Vec_IntPush.exit, %Vec_IntAlloc.exit
  %.val10.lcssa = phi i32 [ %.val11, %Vec_IntAlloc.exit ], [ %.val10, %Vec_IntPush.exit ]
  %51 = tail call i32 (ptr, ...) @printf(ptr noundef nonnull dereferenceable(1) @.str.39, i32 noundef %.val10.lcssa)
  ret ptr %4
}